; Function Attrs: mustprogress uwtable
define void @_ZN14RichPercentageC2ERK7QStringfffS2_S2_bS2_(ptr noundef nonnull align 8 dereferenceable(64) %0, ptr noundef nonnull align 8 dereferenceable(8) %1, float noundef %2, float noundef %3, float noundef %4, ptr noundef nonnull align 8 dereferenceable(8) %5, ptr noundef nonnull align 8 dereferenceable(8) %6, i1 noundef zeroext %7, ptr noundef nonnull align 8 dereferenceable(8) %8) unnamed_addr #1 align 2 personality ptr @__gxx_personality_v0 {
  %10 = alloca %class.FloatValue, align 8
  call void @_ZN10FloatValueC1Ef(ptr noundef nonnull align 8 dereferenceable(12) %10, float noundef %2)
  call void @_ZN13RichParameterC2ERK7QStringRK5ValueS2_S2_bS2_(ptr noundef nonnull align 8 dereferenceable(56) %0, ptr noundef nonnull align 8 dereferenceable(8) %1, ptr noundef nonnull align 8 dereferenceable(8) %10, ptr noundef nonnull align 8 dereferenceable(8) %5, ptr noundef nonnull align 8 dereferenceable(8) %6, i1 noundef zeroext %7, ptr noundef nonnull align 8 dereferenceable(8) %8)
  store ptr getelementptr inbounds ({ [8 x ptr] }, ptr @_ZTV14RichPercentage, i64 0, i32 0, i64 2), ptr %0, align 8
  %11 = getelementptr inbounds i8, ptr %0, i64 56
  store float %3, ptr %11, align 8
  %12 = getelementptr inbounds i8, ptr %0, i64 60
  store float %4, ptr %12, align 4
  ret void
}